Certificate:
    Data:
        Version: 3 (0x2)
        Serial Number:
            a2:99:25:9d:5b:2d:11:57:9f:eb:e9:d8:cb:d6:78:ab
        Signature Algorithm: sha256WithRSAEncryption
        Issuer: CN=Sruth na Maoile CA
        Validity
            Not Before: Apr 24 17:44:54 2022 GMT
            Not After : Apr  8 17:44:54 2025 GMT
        Subject: O=Sruth na Maoile, CN=Third of May Suite - 1
        Subject Public Key Info:
            Public Key Algorithm: rsaEncryption
                RSA Public-Key: (4096 bit)
                Modulus:
                    00:c1:98:d8:65:63:5c:ea:4b:93:ca:09:ad:88:f1:
                    fa:14:71:a4:d4:3d:ef:06:69:80:c4:fd:6a:08:08:
                    7d:cf:cd:4c:ae:6b:af:c5:4a:68:ef:82:15:90:20:
                    ec:23:94:3b:4c:93:9f:3c:b3:c2:59:aa:64:b9:d3:
                    57:cd:89:ef:c6:15:49:7f:03:5f:b2:c2:b6:d9:ae:
                    f3:43:40:f4:f3:83:d5:e8:10:70:62:55:3b:40:42:
                    70:cf:c0:a5:bc:8a:46:d6:b3:1f:fa:fe:39:00:b6:
                    02:e8:d8:1e:95:1f:55:db:aa:5e:4d:fa:c1:4a:fe:
                    e0:5f:8f:83:83:4a:02:ef:45:60:fa:5e:ee:05:74:
                    57:bf:54:39:ad:85:ef:c8:5d:8d:cf:87:91:a5:73:
                    36:6d:1b:30:c6:50:4a:cf:bf:6e:e1:1e:3c:0e:78:
                    07:b4:3c:25:d3:e5:ab:d4:bc:ad:e0:05:ad:6f:84:
                    f5:68:50:b9:ed:7c:ab:a5:8d:93:4e:ad:e0:4a:db:
                    e0:05:a4:4d:29:3a:15:6c:b1:72:d4:8e:af:35:4e:
                    6b:5b:b9:9b:02:ec:13:55:99:64:b6:bf:12:a7:59:
                    39:c8:dc:21:74:6b:90:cf:48:1c:6d:ee:de:ea:87:
                    f9:e9:bb:21:e6:50:6b:e6:c9:0a:f0:5c:86:34:29:
                    1a:cb:21:68:ce:0f:0a:2e:aa:cd:ea:4a:87:65:e1:
                    17:ae:c9:c3:92:78:61:cd:50:0e:9f:6c:ff:29:06:
                    c1:e6:bc:90:d5:41:89:27:e2:07:0e:58:79:d2:c2:
                    6c:51:27:8c:16:03:00:ff:bb:db:44:6b:7c:40:97:
                    77:86:a8:64:3c:48:fa:aa:8e:18:44:80:c3:f8:ac:
                    29:17:96:f0:8c:f0:37:e6:1a:03:4e:d2:61:98:9a:
                    2c:74:1b:bd:ca:ae:9e:98:fe:9c:91:a0:8f:b1:31:
                    10:36:b6:99:cb:67:74:35:4b:53:b6:92:4c:b9:e6:
                    4c:d6:54:52:56:5e:81:b4:ae:c0:6f:f6:f6:e5:e7:
                    ec:5a:e0:79:c7:e8:f7:bf:1d:79:52:28:cc:2d:3f:
                    9c:dd:8c:b4:e2:bf:11:2d:3f:0e:b4:92:3f:cc:e9:
                    48:c3:24:4b:c4:52:66:f8:e4:14:ea:9d:37:94:7a:
                    d0:0f:a8:16:16:39:71:3d:7a:b6:3b:cf:57:b1:83:
                    a0:55:a9:b7:17:8d:04:1f:af:0c:9d:d4:f6:ae:e7:
                    51:1a:6e:74:03:bf:f8:48:78:8d:23:01:9a:f4:42:
                    72:46:14:d4:4b:73:36:bd:af:5f:35:4f:c8:a0:53:
                    84:09:5f:71:bc:b1:04:07:8e:61:d4:02:60:6c:72:
                    85:f3:0d
                Exponent: 65537 (0x10001)
        X509v3 extensions:
            X509v3 Basic Constraints: 
                CA:FALSE
            X509v3 Subject Key Identifier: 
                1C:3D:1A:AE:A8:34:53:4A:A6:CD:E8:52:CE:0A:4A:9D:9D:3E:D8:56
            X509v3 Authority Key Identifier: 
                keyid:5A:45:66:33:70:F9:92:20:D2:07:09:DF:6E:CE:3B:F1:17:D8:D1:D9
                DirName:/CN=Sruth na Maoile CA
                serial:5F:CD:A7:73:F1:18:16:A4:86:EA:6D:D2:93:E2:9D:FF:05:E3:6F:A0

            X509v3 Extended Key Usage: 
                TLS Web Server Authentication
            X509v3 Key Usage: 
                Digital Signature, Key Encipherment
            X509v3 Subject Alternative Name: 
                DNS:Third of May Suite - 1
    Signature Algorithm: sha256WithRSAEncryption
         05:a4:7b:9b:6c:6d:2b:53:88:2f:75:f1:2f:5c:a6:fb:ce:3e:
         00:b6:a9:70:3a:cc:29:4f:fe:07:61:29:a4:8a:86:66:fa:55:
         91:0b:c5:02:d3:18:9b:5a:a9:95:b3:b2:ef:56:70:c5:2e:9e:
         31:83:36:8c:2c:3d:f8:c9:5b:c1:ab:e5:de:a7:c0:de:5a:fa:
         6a:93:75:2e:32:24:c0:2c:8c:3e:4d:ed:6e:1b:b4:e9:3d:19:
         9a:65:ff:90:86:0c:e8:50:21:3e:ab:04:c5:36:7b:6e:0b:b3:
         57:e9:b5:ed:cc:5f:bb:36:d4:e9:8e:88:14:1b:b3:50:e9:46:
         55:14:fc:aa:cd:f1:9d:a1:ef:17:12:55:e8:b2:74:42:fa:bd:
         d9:15:c3:3e:ea:76:68:b0:da:52:0d:05:1e:f1:17:50:ea:da:
         e8:06:1c:d5:7e:91:f6:b7:f5:07:40:3b:74:fb:3c:eb:42:28:
         c4:58:b3:db:de:02:21:2c:40:b6:d5:fe:a6:11:18:da:47:a1:
         9d:cf:0d:91:66:b0:34:62:d7:c7:9a:cf:81:40:cd:78:b7:07:
         85:39:77:8b:f6:83:2b:48:41:4c:88:1e:54:84:95:6e:1f:8d:
         8e:17:0b:4f:9f:5b:51:ad:d7:1d:9c:74:62:1b:12:f6:c2:3b:
         c9:b9:ff:e9
-----BEGIN CERTIFICATE-----
MIIEsDCCA5igAwIBAgIRAKKZJZ1bLRFXn+vp2MvWeKswDQYJKoZIhvcNAQELBQAw
HTEbMBkGA1UEAwwSU3J1dGggbmEgTWFvaWxlIENBMB4XDTIyMDQyNDE3NDQ1NFoX
DTI1MDQwODE3NDQ1NFowOzEYMBYGA1UECgwPU3J1dGggbmEgTWFvaWxlMR8wHQYD
VQQDDBZUaGlyZCBvZiBNYXkgU3VpdGUgLSAxMIICIjANBgkqhkiG9w0BAQEFAAOC
Ag8AMIICCgKCAgEAwZjYZWNc6kuTygmtiPH6FHGk1D3vBmmAxP1qCAh9z81Mrmuv
xUpo74IVkCDsI5Q7TJOfPLPCWapkudNXzYnvxhVJfwNfssK22a7zQ0D084PV6BBw
YlU7QEJwz8ClvIpG1rMf+v45ALYC6NgelR9V26peTfrBSv7gX4+Dg0oC70Vg+l7u
BXRXv1Q5rYXvyF2Nz4eRpXM2bRswxlBKz79u4R48DngHtDwl0+Wr1Lyt4AWtb4T1
aFC57XyrpY2TTq3gStvgBaRNKToVbLFy1I6vNU5rW7mbAuwTVZlktr8Sp1k5yNwh
dGuQz0gcbe7e6of56bsh5lBr5skK8FyGNCkayyFozg8KLqrN6kqHZeEXrsnDknhh
zVAOn2z/KQbB5ryQ1UGJJ+IHDlh50sJsUSeMFgMA/7vbRGt8QJd3hqhkPEj6qo4Y
RIDD+KwpF5bwjPA35hoDTtJhmJosdBu9yq6emP6ckaCPsTEQNraZy2d0NUtTtpJM
ueZM1lRSVl6BtK7Ab/b25efsWuB5x+j3vx15UijMLT+c3Yy04r8RLT8OtJI/zOlI
wyRLxFJm+OQU6p03lHrQD6gWFjlxPXq2O89XsYOgVam3F40EH68MndT2rudRGm50
A7/4SHiNIwGa9EJyRhTUS3M2va9fNU/IoFOECV9xvLEEB45h1AJgbHKF8w0CAwEA
AaOBzDCByTAJBgNVHRMEAjAAMB0GA1UdDgQWBBQcPRquqDRTSqbN6FLOCkqdnT7Y
VjBYBgNVHSMEUTBPgBRaRWYzcPmSINIHCd9uzjvxF9jR2aEhpB8wHTEbMBkGA1UE
AwwSU3J1dGggbmEgTWFvaWxlIENBghRfzadz8RgWpIbqbdKT4p3/BeNvoDATBgNV
HSUEDDAKBggrBgEFBQcDATALBgNVHQ8EBAMCBaAwIQYDVR0RBBowGIIWVGhpcmQg
b2YgTWF5IFN1aXRlIC0gMTANBgkqhkiG9w0BAQsFAAOCAQEABaR7m2xtK1OIL3Xx
L1ym+84+ALapcDrMKU/+B2EppIqGZvpVkQvFAtMYm1qplbOy71ZwxS6eMYM2jCw9
+Mlbwavl3qfA3lr6apN1LjIkwCyMPk3tbhu06T0ZmmX/kIYM6FAhPqsExTZ7bguz
V+m17cxfuzbU6Y6IFBuzUOlGVRT8qs3xnaHvFxJV6LJ0Qvq92RXDPup2aLDaUg0F
HvEXUOra6AYc1X6R9rf1B0A7dPs860IoxFiz294CISxAttX+phEY2kehnc8NkWaw
NGLXx5rPgUDNeLcHhTl3i/aDK0hBTIgeVISVbh+NjhcLT59bUa3XHZx0YhsS9sI7
ybn/6Q==
-----END CERTIFICATE-----
